; ModuleID = 'source-C-CXX/53/664.c'
source_filename = "source-C-CXX/53/664.c"
target datalayout = "e-m:e-p270:32:32-p271:32:32-p272:64:64-i64:64-f80:128-n8:16:32:64-S128"
target triple = "x86_64-pc-linux-gnu"

@.str = private unnamed_addr constant [6 x i8] c"%d %d\00", align 1
@.str.1 = private unnamed_addr constant [6 x i8] c"%.0f\0A\00", align 1

; Function Attrs: nofree nounwind sspstrong uwtable
define dso_local void @main() local_unnamed_addr #0 {
  %1 = alloca i32, align 4
  %2 = alloca i32, align 4
  %3 = bitcast i32* %1 to i8*
  call void @llvm.lifetime.start.p0i8(i64 4, i8* nonnull %3) #4
  %4 = bitcast i32* %2 to i8*
  call void @llvm.lifetime.start.p0i8(i64 4, i8* nonnull %4) #4
  %5 = call i32 (i8*, ...) @__isoc99_scanf(i8* getelementptr inbounds ([6 x i8], [6 x i8]* @.str, i64 0, i64 0), i32* nonnull %1, i32* nonnull %2)
  %6 = load i32, i32* %1, align 4, !tbaa !5
  %7 = add nsw i32 %6, 1
  %8 = load i32, i32* %2, align 4, !tbaa !5
  %9 = add nsw i32 %6, -1
  br label %10

10:                                               ; preds = %10, %0
  %11 = phi i32 [ 1, %0 ], [ %18, %10 ]
  %12 = mul nsw i32 %11, %9
  %13 = call double @final(i32 %7, i32 %8, i32 %6, i32 %12)
  %14 = fptosi double %13 to i32
  %15 = sitofp i32 %14 to double
  %16 = fsub double %13, %15
  %17 = fcmp oeq double %16, 0.000000e+00
  %18 = add nuw nsw i32 %11, 1
  br i1 %17, label %19, label %10

19:                                               ; preds = %10
  %20 = call i32 (i8*, ...) @printf(i8* nonnull dereferenceable(1) getelementptr inbounds ([6 x i8], [6 x i8]* @.str.1, i64 0, i64 0), double %13)
  call void @llvm.lifetime.end.p0i8(i64 4, i8* nonnull %4) #4
  call void @llvm.lifetime.end.p0i8(i64 4, i8* nonnull %3) #4
  ret void
}

; Function Attrs: argmemonly mustprogress nofree nosync nounwind willreturn
declare void @llvm.lifetime.start.p0i8(i64 immarg, i8* nocapture) #1

; Function Attrs: nofree nounwind
declare noundef i32 @__isoc99_scanf(i8* nocapture noundef readonly, ...) local_unnamed_addr #2

; Function Attrs: nofree nosync nounwind readnone sspstrong uwtable
define dso_local double @final(i32 %0, i32 %1, i32 %2, i32 %3) local_unnamed_addr #3 {
  %5 = icmp eq i32 %0, 1
  br i1 %5, label %6, label %10

6:                                                ; preds = %4
  %7 = sitofp i32 %3 to double
  br label %8

8:                                                ; preds = %6, %10
  %9 = phi double [ %19, %10 ], [ %7, %6 ]
  ret double %9

10:                                               ; preds = %4
  %11 = add nsw i32 %0, -1
  %12 = tail call double @final(i32 %11, i32 %1, i32 %2, i32 %3)
  %13 = sitofp i32 %2 to double
  %14 = fmul double %12, %13
  %15 = add nsw i32 %2, -1
  %16 = sitofp i32 %15 to double
  %17 = fdiv double %14, %16
  %18 = sitofp i32 %1 to double
  %19 = fadd double %17, %18
  br label %8
}

; Function Attrs: nofree nounwind
declare noundef i32 @printf(i8* nocapture noundef readonly, ...) local_unnamed_addr #2

; Function Attrs: argmemonly mustprogress nofree nosync nounwind willreturn
declare void @llvm.lifetime.end.p0i8(i64 immarg, i8* nocapture) #1


!llvm.module.flags = !{!0, !1, !2, !3}
!llvm.ident = !{!4}

!0 = !{i32 1, !"wchar_size", i32 4}
!1 = !{i32 7, !"PIC Level", i32 2}
!2 = !{i32 7, !"PIE Level", i32 2}
!3 = !{i32 7, !"uwtable", i32 1}
!4 = !{!"clang version 13.0.0"}
!5 = !{!6, !6, i64 0}
!6 = !{!"int", !7, i64 0}
!7 = !{!"omnipotent char", !8, i64 0}
!8 = !{!"Simple C/C++ TBAA"}
